GAS LISTING /tmp/ccEhhS0z.s 			page 1


   1               		.file	"main.c"
   2               	__SREG__ = 0x3f
   3               	__SP_H__ = 0x3e
   4               	__SP_L__ = 0x3d
   5               	__CCP__ = 0x34
   6               	__tmp_reg__ = 0
   7               	__zero_reg__ = 1
   8               		.global __do_copy_data
   9               		.global __do_clear_bss
  10               		.text
  11               	.Ltext0:
  12               		.cfi_sections	.debug_frame
  13               	.global	__vector_23
  14               		.type	__vector_23, @function
  15               	__vector_23:
  16               	.LFB1:
  17               		.file 1 "main.c"
   1:main.c        **** #include <stdint.h>
   2:main.c        **** #include <stdlib.h>
   3:main.c        **** #include <string.h>
   4:main.c        **** #include <avr/io.h>
   5:main.c        **** #include <avr/interrupt.h>
   6:main.c        **** #include "uart.h"
   7:main.c        **** #define OVERSAMPLES 10
   8:main.c        **** 
   9:main.c        **** volatile uint8_t timerOF=0;
  10:main.c        **** static volatile uint16_t adcData;
  11:main.c        **** static volatile uint16_t ADCtotal;
  12:main.c        **** static volatile uint8_t adcDataL;
  13:main.c        **** static volatile uint8_t adcDataH;
  14:main.c        **** static volatile uint8_t sample_count;
  15:main.c        **** static volatile uint8_t ser_cnt = 0;
  16:main.c        **** inline ISR(TIMER0_OVF_vect){timerOF=1;}
  18               		.loc 1 16 0
  19               		.cfi_startproc
  20 0000 1F92      		push r1
  21               	.LCFI0:
  22               		.cfi_def_cfa_offset 4
  23               		.cfi_offset 1, -3
  24 0002 0F92      		push r0
  25               	.LCFI1:
  26               		.cfi_def_cfa_offset 5
  27               		.cfi_offset 0, -4
  28 0004 0FB6      		in r0,__SREG__
  29 0006 0F92      		push r0
  30 0008 1124      		clr __zero_reg__
  31 000a 8F93      		push r24
  32               	.LCFI2:
  33               		.cfi_def_cfa_offset 6
  34               		.cfi_offset 24, -5
  35               	/* prologue: Signal */
  36               	/* frame size = 0 */
  37               	/* stack size = 4 */
  38               	.L__stack_usage = 4
  39               		.loc 1 16 0
  40 000c 81E0      		ldi r24,lo8(1)
  41 000e 8093 0000 		sts timerOF,r24
GAS LISTING /tmp/ccEhhS0z.s 			page 2


  42               	/* epilogue start */
  43 0012 8F91      		pop r24
  44 0014 0F90      		pop r0
  45 0016 0FBE      		out __SREG__,r0
  46 0018 0F90      		pop r0
  47 001a 1F90      		pop r1
  48 001c 1895      		reti
  49               		.cfi_endproc
  50               	.LFE1:
  51               		.size	__vector_23, .-__vector_23
  52               	.global	__vector_29
  53               		.type	__vector_29, @function
  54               	__vector_29:
  55               	.LFB2:
  17:main.c        **** inline ISR(ADC_vect)
  18:main.c        **** {
  56               		.loc 1 18 0
  57               		.cfi_startproc
  58 001e 1F92      		push r1
  59               	.LCFI3:
  60               		.cfi_def_cfa_offset 4
  61               		.cfi_offset 1, -3
  62 0020 0F92      		push r0
  63               	.LCFI4:
  64               		.cfi_def_cfa_offset 5
  65               		.cfi_offset 0, -4
  66 0022 0FB6      		in r0,__SREG__
  67 0024 0F92      		push r0
  68 0026 1124      		clr __zero_reg__
  69 0028 2F93      		push r18
  70               	.LCFI5:
  71               		.cfi_def_cfa_offset 6
  72               		.cfi_offset 18, -5
  73 002a 3F93      		push r19
  74               	.LCFI6:
  75               		.cfi_def_cfa_offset 7
  76               		.cfi_offset 19, -6
  77 002c 8F93      		push r24
  78               	.LCFI7:
  79               		.cfi_def_cfa_offset 8
  80               		.cfi_offset 24, -7
  81 002e 9F93      		push r25
  82               	.LCFI8:
  83               		.cfi_def_cfa_offset 9
  84               		.cfi_offset 25, -8
  85               	/* prologue: Signal */
  86               	/* frame size = 0 */
  87               	/* stack size = 7 */
  88               	.L__stack_usage = 7
  19:main.c        ****     adcDataL = ADCL;
  89               		.loc 1 19 0
  90 0030 8091 7800 		lds r24,120
  91 0034 8093 0000 		sts adcDataL,r24
  20:main.c        ****     adcDataH = ADCH;
  92               		.loc 1 20 0
  93 0038 8091 7900 		lds r24,121
  94 003c 8093 0000 		sts adcDataH,r24
GAS LISTING /tmp/ccEhhS0z.s 			page 3


  21:main.c        ****     adcData = 0;
  95               		.loc 1 21 0
  96 0040 1092 0000 		sts adcData+1,__zero_reg__
  97 0044 1092 0000 		sts adcData,__zero_reg__
  22:main.c        ****     adcData = adcData | adcDataH;
  98               		.loc 1 22 0
  99 0048 2091 0000 		lds r18,adcData
 100 004c 3091 0000 		lds r19,adcData+1
 101 0050 8091 0000 		lds r24,adcDataH
 102 0054 90E0      		ldi r25,lo8(0)
 103 0056 822B      		or r24,r18
 104 0058 932B      		or r25,r19
 105 005a 9093 0000 		sts adcData+1,r25
 106 005e 8093 0000 		sts adcData,r24
  23:main.c        ****     adcData = adcData << 8;
 107               		.loc 1 23 0
 108 0062 8091 0000 		lds r24,adcData
 109 0066 9091 0000 		lds r25,adcData+1
 110 006a 982F      		mov r25,r24
 111 006c 8827      		clr r24
 112 006e 9093 0000 		sts adcData+1,r25
 113 0072 8093 0000 		sts adcData,r24
  24:main.c        ****     adcData = adcData | adcDataL;
 114               		.loc 1 24 0
 115 0076 2091 0000 		lds r18,adcData
 116 007a 3091 0000 		lds r19,adcData+1
 117 007e 8091 0000 		lds r24,adcDataL
 118 0082 90E0      		ldi r25,lo8(0)
 119 0084 822B      		or r24,r18
 120 0086 932B      		or r25,r19
 121 0088 9093 0000 		sts adcData+1,r25
 122 008c 8093 0000 		sts adcData,r24
  25:main.c        ****     ADCtotal = ADCtotal+adcData;
 123               		.loc 1 25 0
 124 0090 2091 0000 		lds r18,ADCtotal
 125 0094 3091 0000 		lds r19,ADCtotal+1
 126 0098 8091 0000 		lds r24,adcData
 127 009c 9091 0000 		lds r25,adcData+1
 128 00a0 820F      		add r24,r18
 129 00a2 931F      		adc r25,r19
 130 00a4 9093 0000 		sts ADCtotal+1,r25
 131 00a8 8093 0000 		sts ADCtotal,r24
  26:main.c        ****     sample_count ++;
 132               		.loc 1 26 0
 133 00ac 8091 0000 		lds r24,sample_count
 134 00b0 8F5F      		subi r24,lo8(-(1))
 135 00b2 8093 0000 		sts sample_count,r24
 136               	/* epilogue start */
  27:main.c        ****     
  28:main.c        **** }
 137               		.loc 1 28 0
 138 00b6 9F91      		pop r25
 139 00b8 8F91      		pop r24
 140 00ba 3F91      		pop r19
 141 00bc 2F91      		pop r18
 142 00be 0F90      		pop r0
 143 00c0 0FBE      		out __SREG__,r0
GAS LISTING /tmp/ccEhhS0z.s 			page 4


 144 00c2 0F90      		pop r0
 145 00c4 1F90      		pop r1
 146 00c6 1895      		reti
 147               		.cfi_endproc
 148               	.LFE2:
 149               		.size	__vector_29, .-__vector_29
 150               	.global	do_math
 151               		.type	do_math, @function
 152               	do_math:
 153               	.LFB3:
  29:main.c        **** int16_t do_math(int16_t A,int16_t B,char operator)
  30:main.c        **** {
 154               		.loc 1 30 0
 155               		.cfi_startproc
 156               	.LVL0:
 157               	/* prologue: function */
 158               	/* frame size = 0 */
 159               	/* stack size = 0 */
 160               	.L__stack_usage = 0
  31:main.c        ****     int32_t result = 0;
  32:main.c        ****     if (operator == '+'){result = A+B;}
 161               		.loc 1 32 0
 162 00c8 4B32      		cpi r20,lo8(43)
 163 00ca 01F4      		brne .L4
 164               		.loc 1 32 0 is_stmt 0 discriminator 1
 165 00cc 860F      		add r24,r22
 166 00ce 971F      		adc r25,r23
 167               	.LVL1:
 168 00d0 00C0      		rjmp .L9
 169               	.LVL2:
 170               	.L4:
  33:main.c        ****     if (operator == '-'){result = A-B;}
 171               		.loc 1 33 0 is_stmt 1
 172 00d2 4D32      		cpi r20,lo8(45)
 173 00d4 01F4      		brne .L6
 174               		.loc 1 33 0 is_stmt 0 discriminator 1
 175 00d6 861B      		sub r24,r22
 176 00d8 970B      		sbc r25,r23
 177               	.LVL3:
 178 00da 00C0      		rjmp .L9
 179               	.LVL4:
 180               	.L6:
  34:main.c        ****     if (operator == '*'){result = A*B;}
 181               		.loc 1 34 0 is_stmt 1
 182 00dc 4A32      		cpi r20,lo8(42)
 183 00de 01F4      		brne .L7
 184               		.loc 1 34 0 is_stmt 0 discriminator 1
 185 00e0 869F      		mul r24,r22
 186 00e2 A001      		movw r20,r0
 187 00e4 879F      		mul r24,r23
 188 00e6 500D      		add r21,r0
 189 00e8 969F      		mul r25,r22
 190 00ea 500D      		add r21,r0
 191 00ec 1124      		clr r1
 192               	.LVL5:
 193 00ee 6627      		clr r22
 194 00f0 57FD      		sbrc r21,7
GAS LISTING /tmp/ccEhhS0z.s 			page 5


 195 00f2 6095      		com r22
 196 00f4 762F      		mov r23,r22
 197               	.LVL6:
 198 00f6 00C0      		rjmp .L5
 199               	.LVL7:
 200               	.L7:
  35:main.c        ****     if (operator == '/'){result = A/B;}
 201               		.loc 1 35 0 is_stmt 1
 202 00f8 4F32      		cpi r20,lo8(47)
 203 00fa 01F4      		brne .L8
 204               		.loc 1 35 0 is_stmt 0 discriminator 1
 205 00fc 0E94 0000 		call __divmodhi4
 206               	.LVL8:
 207 0100 CB01      		movw r24,r22
 208               	.L9:
 209 0102 AC01      		movw r20,r24
 210 0104 6627      		clr r22
 211 0106 57FD      		sbrc r21,7
 212 0108 6095      		com r22
 213 010a 762F      		mov r23,r22
 214               	.LVL9:
 215 010c 00C0      		rjmp .L5
 216               	.LVL10:
 217               	.L8:
  31:main.c        ****     int32_t result = 0;
 218               		.loc 1 31 0 is_stmt 1
 219 010e 40E0      		ldi r20,lo8(0)
 220 0110 50E0      		ldi r21,hi8(0)
 221 0112 BA01      		movw r22,r20
 222               	.LVL11:
 223               	.L5:
  36:main.c        **** //    if (operator == '='){result = A = B;}
  37:main.c        ****     int16_t i =  ((result >> 0) & 0xffff);
  38:main.c        ****    return i;
  39:main.c        **** }
 224               		.loc 1 39 0
 225 0114 CA01      		movw r24,r20
 226               	/* epilogue start */
 227 0116 0895      		ret
 228               		.cfi_endproc
 229               	.LFE3:
 230               		.size	do_math, .-do_math
 231               	.global	read_adc
 232               		.type	read_adc, @function
 233               	read_adc:
 234               	.LFB4:
  40:main.c        **** uint16_t read_adc(uint8_t channel)
  41:main.c        **** {
 235               		.loc 1 41 0
 236               		.cfi_startproc
 237               	.LVL12:
 238               	/* prologue: function */
 239               	/* frame size = 0 */
 240               	/* stack size = 0 */
 241               	.L__stack_usage = 0
  42:main.c        ****     ADMUX = ADMUX | channel;// set channel , by masking channel number to ADMUX
 242               		.loc 1 42 0
GAS LISTING /tmp/ccEhhS0z.s 			page 6


 243 0118 9091 7C00 		lds r25,124
 244 011c 982B      		or r25,r24
 245 011e 9093 7C00 		sts 124,r25
  43:main.c        ****     ADCSRA |= (1<<ADEN); // enable the ADC
 246               		.loc 1 43 0
 247 0122 8091 7A00 		lds r24,122
 248               	.LVL13:
 249 0126 8068      		ori r24,lo8(-128)
 250 0128 8093 7A00 		sts 122,r24
  44:main.c        ****     sample_count = 0;//clear osample count
 251               		.loc 1 44 0
 252 012c 1092 0000 		sts sample_count,__zero_reg__
  45:main.c        ****     ADCtotal = 0;
 253               		.loc 1 45 0
 254 0130 1092 0000 		sts ADCtotal+1,__zero_reg__
 255 0134 1092 0000 		sts ADCtotal,__zero_reg__
  46:main.c        ****     ADCSRA |= (1<<ADSC);//start conversion
 256               		.loc 1 46 0
 257 0138 8091 7A00 		lds r24,122
 258 013c 8064      		ori r24,lo8(64)
 259 013e 8093 7A00 		sts 122,r24
  47:main.c        ****     //read adcData done in interrupt
  48:main.c        ****     while (sample_count < OVERSAMPLES){asm volatile ("nop"::);}//wait for completion
 260               		.loc 1 48 0
 261 0142 00C0      		rjmp .L11
 262               	.L12:
 263               		.loc 1 48 0 is_stmt 0 discriminator 2
 264               	/* #APP */
 265               	 ;  48 "main.c" 1
 266 0144 0000      		nop
 267               	 ;  0 "" 2
 268               	/* #NOAPP */
 269               	.L11:
 270               		.loc 1 48 0 discriminator 1
 271 0146 8091 0000 		lds r24,sample_count
 272 014a 8A30      		cpi r24,lo8(10)
 273 014c 00F0      		brlo .L12
  49:main.c        ****     ADCSRA &=~ (1<<ADEN); // stop the ADC
 274               		.loc 1 49 0 is_stmt 1
 275 014e 8091 7A00 		lds r24,122
 276 0152 8F77      		andi r24,lo8(127)
 277 0154 8093 7A00 		sts 122,r24
  50:main.c        ****     return (ADCtotal/OVERSAMPLES); //mx osamples = 63  othewise will overflow total register with 1
 278               		.loc 1 50 0
 279 0158 8091 0000 		lds r24,ADCtotal
 280 015c 9091 0000 		lds r25,ADCtotal+1
 281 0160 6AE0      		ldi r22,lo8(10)
 282 0162 70E0      		ldi r23,hi8(10)
 283 0164 0E94 0000 		call __udivmodhi4
 284 0168 CB01      		movw r24,r22
 285               	/* epilogue start */
  51:main.c        **** }
 286               		.loc 1 51 0
 287 016a 0895      		ret
 288               		.cfi_endproc
 289               	.LFE4:
 290               		.size	read_adc, .-read_adc
GAS LISTING /tmp/ccEhhS0z.s 			page 7


 291               		.section	.text.startup,"ax",@progbits
 292               	.global	main
 293               		.type	main, @function
 294               	main:
 295               	.LFB5:
  52:main.c        **** int main()
  53:main.c        **** {
 296               		.loc 1 53 0
 297               		.cfi_startproc
 298               	/* prologue: function */
 299               	/* frame size = 0 */
 300               	/* stack size = 0 */
 301               	.L__stack_usage = 0
  54:main.c        **** //set up ADC
  55:main.c        ****     ADCSRA |= ( (1<<ADPS2)|(1<<ADPS1)|(1<<ADPS0) );//  sets adc clock prescaler to 128 //checked
 302               		.loc 1 55 0
 303 0000 8091 7A00 		lds r24,122
 304 0004 8760      		ori r24,lo8(7)
 305 0006 8093 7A00 		sts 122,r24
  56:main.c        ****     ADMUX |=  (1<<REFS0); // sets ref volts to Vcc 
 306               		.loc 1 56 0
 307 000a 8091 7C00 		lds r24,124
 308 000e 8064      		ori r24,lo8(64)
 309 0010 8093 7C00 		sts 124,r24
  57:main.c        ****     ADCSRA |= (1<<ADIE); // enable ADC conversion complete interrupt
 310               		.loc 1 57 0
 311 0014 8091 7A00 		lds r24,122
 312 0018 8860      		ori r24,lo8(8)
 313 001a 8093 7A00 		sts 122,r24
  58:main.c        ****     ADCSRA |= (1<<ADATE);// set to auto trigger (free running by default)
 314               		.loc 1 58 0
 315 001e 8091 7A00 		lds r24,122
 316 0022 8062      		ori r24,lo8(32)
 317 0024 8093 7A00 		sts 122,r24
  59:main.c        ****    DDRD |= (1<<5);
 318               		.loc 1 59 0
 319 0028 559A      		sbi 42-32,5
  60:main.c        ****    DDRD |= (1<<6);
 320               		.loc 1 60 0
 321 002a 569A      		sbi 42-32,6
  61:main.c        ****    DDRD |= (1<<7);
 322               		.loc 1 61 0
 323 002c 579A      		sbi 42-32,7
  62:main.c        ****    DDRB |= (1<<0);
 324               		.loc 1 62 0
 325 002e 209A      		sbi 36-32,0
  63:main.c        ****    DDRB |= (1<<1);
 326               		.loc 1 63 0
 327 0030 219A      		sbi 36-32,1
  64:main.c        ****    DDRB |= (1<<2);
 328               		.loc 1 64 0
 329 0032 229A      		sbi 36-32,2
  65:main.c        ****    DDRB |= (1<<3);
 330               		.loc 1 65 0
 331 0034 239A      		sbi 36-32,3
  66:main.c        ****    DDRB |= (1<<4);
 332               		.loc 1 66 0
GAS LISTING /tmp/ccEhhS0z.s 			page 8


 333 0036 249A      		sbi 36-32,4
  67:main.c        ****    DDRB |= (1<<5);
 334               		.loc 1 67 0
 335 0038 259A      		sbi 36-32,5
  68:main.c        **** 
  69:main.c        ****     //set up loop timer:
  70:main.c        ****     TIMSK0 |= (1<<TOIE0);// overflow capture enable
 336               		.loc 1 70 0
 337 003a 8091 6E00 		lds r24,110
 338 003e 8160      		ori r24,lo8(1)
 339 0040 8093 6E00 		sts 110,r24
  71:main.c        ****     TCNT0 = 101;// start at this
 340               		.loc 1 71 0
 341 0044 85E6      		ldi r24,lo8(101)
 342 0046 86BD      		out 70-32,r24
  72:main.c        ****     TCCR0B |= ((1<<CS10)|(1<<CS12));// timer started with /1024 prescaler 
 343               		.loc 1 72 0
 344 0048 85B5      		in r24,69-32
 345 004a 8560      		ori r24,lo8(5)
 346 004c 85BD      		out 69-32,r24
  73:main.c        ****  
  74:main.c        ****    //setup timer for PWM  2
  75:main.c        ****     DDRE |= (1<<5);
 347               		.loc 1 75 0
 348 004e 6D9A      		sbi 45-32,5
  76:main.c        ****     TCCR3A |= (1<<COM3C1);
 349               		.loc 1 76 0
 350 0050 8091 9000 		lds r24,144
 351 0054 8860      		ori r24,lo8(8)
 352 0056 8093 9000 		sts 144,r24
  77:main.c        ****     TCCR3B |= ((1<<WGM33)|(1<<CS30));
 353               		.loc 1 77 0
 354 005a 8091 9100 		lds r24,145
 355 005e 8161      		ori r24,lo8(17)
 356 0060 8093 9100 		sts 145,r24
  78:main.c        ****     //TIMSK3 |= (1<<ICIE3);
  79:main.c        ****     
  80:main.c        ****     OCR3C = 0 ;
 357               		.loc 1 80 0
 358 0064 1092 9D00 		sts 156+1,__zero_reg__
 359 0068 1092 9C00 		sts 156,__zero_reg__
  81:main.c        ****     ICR3 = 500 ;
 360               		.loc 1 81 0
 361 006c 84EF      		ldi r24,lo8(500)
 362 006e 91E0      		ldi r25,hi8(500)
 363 0070 9093 9700 		sts 150+1,r25
 364 0074 8093 9600 		sts 150,r24
  82:main.c        **** 
  83:main.c        ****     sei();
 365               		.loc 1 83 0
 366               	/* #APP */
 367               	 ;  83 "main.c" 1
 368 0078 7894      		sei
 369               	 ;  0 "" 2
 370               	.LVL14:
  84:main.c        ****     uint8_t cont_Name_1_NO = 0;
  85:main.c        ****     uint16_t reg_ADC_Name_2 = 0;
GAS LISTING /tmp/ccEhhS0z.s 			page 9


  86:main.c        **** 
  87:main.c        ****     uint8_t Greater_2_6 = 0;
  88:main.c        ****     uint8_t output_Name_1 = 0;
 371               		.loc 1 88 0
 372               	/* #NOAPP */
 373 007a 80E0      		ldi r24,lo8(0)
  89:main.c        ****     uint8_t W = 1;
  90:main.c        ****     while (1)
  91:main.c        ****     {
  92:main.c        ****         if (timerOF == 1)
  93:main.c        ****         {
  94:main.c        ****            timerOF=0;//reset timer flag
  95:main.c        ****            TCNT0 = 101;// start at this
 374               		.loc 1 95 0
 375 007c 25E6      		ldi r18,lo8(101)
 376 007e F22E      		mov r15,r18
  96:main.c        ****            //inputs:
  97:main.c        ****              if(output_Name_1 == 1){
  98:main.c        ****                 cont_Name_1_NO=1;}
  99:main.c        ****              else {
 100:main.c        ****                 cont_Name_1_NO=0;} //link name
 101:main.c        **** 
 102:main.c        ****             //Start of Ladder:
 103:main.c        ****             //rung at 0
 104:main.c        ****              W = 1;
 105:main.c        ****              if(cont_Name_1_NO == 0){W = 0;}
 106:main.c        ****             if (W == 1){OCR3C=10;}
 377               		.loc 1 106 0
 378 0080 0AE0      		ldi r16,lo8(10)
 379 0082 10E0      		ldi r17,hi8(10)
 380               	.LVL15:
 381               	.L22:
  92:main.c        ****         if (timerOF == 1)
 382               		.loc 1 92 0
 383 0084 9091 0000 		lds r25,timerOF
 384 0088 9130      		cpi r25,lo8(1)
 385 008a 01F4      		brne .L22
  94:main.c        ****            timerOF=0;//reset timer flag
 386               		.loc 1 94 0
 387 008c 1092 0000 		sts timerOF,__zero_reg__
  95:main.c        ****            TCNT0 = 101;// start at this
 388               		.loc 1 95 0
 389 0090 F6BC      		out 70-32,r15
  97:main.c        ****              if(output_Name_1 == 1){
 390               		.loc 1 97 0
 391 0092 8130      		cpi r24,lo8(1)
 392 0094 01F4      		brne .L15
 393               	.LVL16:
 394               		.loc 1 106 0
 395 0096 1093 9D00 		sts 156+1,r17
 396 009a 0093 9C00 		sts 156,r16
 397               	.LVL17:
 398               	.L19:
 107:main.c        ****             else{OCR3C= 0;}
 108:main.c        ****             //end rung 
 109:main.c        **** 
 110:main.c        ****             //rung at 1
GAS LISTING /tmp/ccEhhS0z.s 			page 10


 111:main.c        ****              W = 1;
 112:main.c        ****             if (W == 1){reg_ADC_Name_2=read_adc(0);}
 399               		.loc 1 112 0
 400 009e 80E0      		ldi r24,lo8(0)
 401               	.LVL18:
 402 00a0 0E94 0000 		call read_adc
 403 00a4 EC01      		movw r28,r24
 404               	.LVL19:
 113:main.c        ****             else{reg_ADC_Name_2=0;}
 114:main.c        ****             ser_cnt ++;
 405               		.loc 1 114 0
 406 00a6 8091 0000 		lds r24,ser_cnt
 407               	.LVL20:
 408 00aa 8F5F      		subi r24,lo8(-(1))
 409 00ac 8093 0000 		sts ser_cnt,r24
 115:main.c        ****             if (ser_cnt >99)
 410               		.loc 1 115 0
 411 00b0 8091 0000 		lds r24,ser_cnt
 412 00b4 8436      		cpi r24,lo8(100)
 413 00b6 00F0      		brlo .L16
 116:main.c        ****             {
 117:main.c        ****                 ser_cnt = 0;
 414               		.loc 1 117 0
 415 00b8 1092 0000 		sts ser_cnt,__zero_reg__
 118:main.c        ****                 uart_putw_dec(reg_ADC_Name_2);
 416               		.loc 1 118 0
 417 00bc CE01      		movw r24,r28
 418 00be 0E94 0000 		call uart_putw_dec
 119:main.c        ****                 uart_putc('\n');
 419               		.loc 1 119 0
 420 00c2 8AE0      		ldi r24,lo8(10)
 421 00c4 0E94 0000 		call uart_putc
 422               	.L16:
 120:main.c        ****             }
 121:main.c        ****             //end rung 
 122:main.c        **** 
 123:main.c        ****             //rung at 2
 124:main.c        ****              W = 1;
 125:main.c        ****              if(reg_ADC_Name_2 > 500){Greater_2_6=1;}
 126:main.c        ****              else {Greater_2_6=0;} //comparison
 127:main.c        ****              if(Greater_2_6 == 0){W = 0;}
 423               		.loc 1 127 0
 424 00c8 81E0      		ldi r24,lo8(1)
 425 00ca 91E0      		ldi r25,hi8(501)
 426 00cc C53F      		cpi r28,lo8(501)
 427 00ce D907      		cpc r29,r25
 428 00d0 00F4      		brsh .L22
 429 00d2 80E0      		ldi r24,lo8(0)
 430 00d4 00C0      		rjmp .L22
 431               	.LVL21:
 432               	.L15:
 107:main.c        ****             else{OCR3C= 0;}
 433               		.loc 1 107 0
 434 00d6 1092 9D00 		sts 156+1,__zero_reg__
 435 00da 1092 9C00 		sts 156,__zero_reg__
 436 00de 00C0      		rjmp .L19
 437               		.cfi_endproc
GAS LISTING /tmp/ccEhhS0z.s 			page 11


 438               	.LFE5:
 439               		.size	main, .-main
 440               		.lcomm ser_cnt,1
 441               		.lcomm sample_count,1
 442               		.lcomm adcDataH,1
 443               		.lcomm adcDataL,1
 444               		.lcomm ADCtotal,2
 445               		.lcomm adcData,2
 446               	.global	timerOF
 447               	.global	timerOF
 448               		.section .bss
 449               		.type	timerOF, @object
 450               		.size	timerOF, 1
 451               	timerOF:
 452 0000 00        		.skip 1,0
 453               		.text
 454               	.Letext0:
 455               		.file 2 "/usr/local/avr/bin/../lib/gcc/avr/4.6.2/../../../../avr/include/stdint.h"