(lp0
(lp1
(imanagegrid
cellStruct
p2
(dp3
S'comment'
p4
NsS'node'
p5
I00
sS'functType'
p6
NsS'source_B'
p7
NsS'branch'
p8
I00
sS'source_A'
p9
NsS'setPoint'
p10
NsS'brchST'
p11
I00
sS'nodeE'
p12
I00
sS'variableName'
p13
NsS'const_B'
p14
NsS'const_A'
p15
NsS'MTorElement'
p16
S'MT'
p17
sS'rungOrOR'
p18
S'Rung'
p19
sS'ioAssign'
p20
NsS'nodeST'
p21
I00
sS'midPointY'
p22
I60
sS'midPointX'
p23
I0
sS'brchE'
p24
I00
sba(imanagegrid
cellStruct
p25
(dp26
g4
Nsg5
I00
sg6
Nsg7
Nsg8
I00
sg9
Nsg10
Nsg11
I00
sg12
I00
sg13
Nsg14
Nsg15
Nsg16
g17
sg18
g19
sg20
Nsg21
I00
sg22
I60
sg23
I60
sg24
I00
sba(imanagegrid
cellStruct
p27
(dp28
g4
Nsg5
I00
sg6
Nsg7
Nsg8
I00
sg9
Nsg10
Nsg11
I00
sg12
I00
sg13
Nsg14
Nsg15
Nsg16
g17
sg18
g19
sg20
Nsg21
I00
sg22
I60
sg23
I120
sg24
I00
sba(imanagegrid
cellStruct
p29
(dp30
g4
Nsg5
I00
sg6
Nsg7
Nsg8
I00
sg9
Nsg10
Nsg11
I00
sg12
I00
sg13
Nsg14
Nsg15
Nsg16
g17
sg18
g19
sg20
Nsg21
I00
sg22
I60
sg23
I180
sg24
I00
sba(imanagegrid
cellStruct
p31
(dp32
g4
Nsg5
I00
sg6
Nsg7
Nsg8
I00
sg9
Nsg10
Nsg11
I00
sg12
I00
sg13
Nsg14
Nsg15
Nsg16
g17
sg18
g19
sg20
Nsg21
I00
sg22
I60
sg23
I240
sg24
I00
sba(imanagegrid
cellStruct
p33
(dp34
g4
Nsg5
I00
sg6
Nsg7
Nsg8
I00
sg9
Nsg10
Nsg11
I00
sg12
I00
sg13
Nsg14
Nsg15
Nsg16
g17
sg18
g19
sg20
Nsg21
I00
sg22
I60
sg23
I300
sg24
I00
sba(imanagegrid
cellStruct
p35
(dp36
g4
Nsg5
I00
sg6
Nsg7
Nsg8
I00
sg9
Nsg10
Nsg11
I00
sg12
I00
sg13
Nsg14
Nsg15
Nsg16
g17
sg18
g19
sg20
Nsg21
I00
sg22
I60
sg23
I360
sg24
I00
sba(imanagegrid
cellStruct
p37
(dp38
g4
Nsg5
I00
sg6
Nsg7
Nsg8
I00
sg9
Nsg10
Nsg11
I00
sg12
I00
sg13
Nsg14
Nsg15
Nsg16
g17
sg18
g19
sg20
Nsg21
I00
sg22
I60
sg23
I420
sg24
I00
sba(imanagegrid
cellStruct
p39
(dp40
g4
Nsg5
I00
sg6
Nsg7
Nsg8
I00
sg9
Nsg10
Nsg11
I00
sg12
I00
sg13
Nsg14
Nsg15
Nsg16
g17
sg18
g19
sg20
Nsg21
I00
sg22
I60
sg23
I480
sg24
I00
sba(imanagegrid
cellStruct
p41
(dp42
g4
csip
_unpickle_type
p43
(S'PyQt4.QtCore'
p44
S'QString'
p45
(V
p46
tp47
tp48
Rp49
sg5
I00
sg6
Nsg7
Nsg8
I00
sg9
Nsg10
Nsg11
I00
sg12
I00
sg13
g43
(g44
S'QString'
p50
(VName_1
p51
tp52
tp53
Rp54
sg14
Nsg15
Nsg16
S'Coil'
p55
sg18
g19
sg20
g43
(g44
S'QString'
p56
(Vout_1
p57
tp58
tp59
Rp60
sg21
I00
sg22
I60
sg23
I540
sg24
I00
sbaa(lp61
(imanagegrid
cellStruct
p62
(dp63
g4
Nsg5
I00
sg6
Nsg7
Nsg8
I00
sg9
Nsg10
Nsg11
I00
sg12
I00
sg13
Nsg14
Nsg15
Nsg16
g17
sg18
g19
sg20
Nsg21
I00
sg22
I120
sg23
I0
sg24
I00
sba(imanagegrid
cellStruct
p64
(dp65
g4
Nsg5
I00
sg6
Nsg7
Nsg8
I00
sg9
Nsg10
Nsg11
I00
sg12
I00
sg13
Nsg14
Nsg15
Nsg16
g17
sg18
g19
sg20
Nsg21
I00
sg22
I120
sg23
I60
sg24
I00
sba(imanagegrid
cellStruct
p66
(dp67
g4
Nsg5
I00
sg6
Nsg7
Nsg8
I00
sg9
Nsg10
Nsg11
I00
sg12
I00
sg13
Nsg14
Nsg15
Nsg16
g17
sg18
g19
sg20
Nsg21
I00
sg22
I120
sg23
I120
sg24
I00
sba(imanagegrid
cellStruct
p68
(dp69
g4
Nsg5
I00
sg6
Nsg7
Nsg8
I00
sg9
Nsg10
Nsg11
I00
sg12
I00
sg13
Nsg14
Nsg15
Nsg16
g17
sg18
g19
sg20
Nsg21
I00
sg22
I120
sg23
I180
sg24
I00
sba(imanagegrid
cellStruct
p70
(dp71
g4
Nsg5
I00
sg6
Nsg7
Nsg8
I00
sg9
Nsg10
Nsg11
I00
sg12
I00
sg13
Nsg14
Nsg15
Nsg16
g17
sg18
g19
sg20
Nsg21
I00
sg22
I120
sg23
I240
sg24
I00
sba(imanagegrid
cellStruct
p72
(dp73
g4
Nsg5
I00
sg6
Nsg7
Nsg8
I00
sg9
Nsg10
Nsg11
I00
sg12
I00
sg13
Nsg14
Nsg15
Nsg16
g17
sg18
g19
sg20
Nsg21
I00
sg22
I120
sg23
I300
sg24
I00
sba(imanagegrid
cellStruct
p74
(dp75
g4
Nsg5
I00
sg6
Nsg7
Nsg8
I00
sg9
Nsg10
Nsg11
I00
sg12
I00
sg13
Nsg14
Nsg15
Nsg16
g17
sg18
g19
sg20
Nsg21
I00
sg22
I120
sg23
I360
sg24
I00
sba(imanagegrid
cellStruct
p76
(dp77
g4
Nsg5
I00
sg6
Nsg7
Nsg8
I00
sg9
Nsg10
Nsg11
I00
sg12
I00
sg13
Nsg14
Nsg15
Nsg16
g17
sg18
g19
sg20
Nsg21
I00
sg22
I120
sg23
I420
sg24
I00
sba(imanagegrid
cellStruct
p78
(dp79
g4
Nsg5
I00
sg6
Nsg7
Nsg8
I00
sg9
Nsg10
Nsg11
I00
sg12
I00
sg13
Nsg14
Nsg15
Nsg16
g17
sg18
g19
sg20
Nsg21
I00
sg22
I120
sg23
I480
sg24
I00
sba(imanagegrid
cellStruct
p80
(dp81
g4
Nsg5
I00
sg6
Nsg7
g43
(g44
S'QString'
p82
(VConstant
p83
tp84
tp85
Rp86
sg8
I00
sg9
g43
(g44
S'QString'
p87
(VName_1
p88
tp89
tp90
Rp91
sg10
Nsg11
I00
sg12
I00
sg13
g43
(g44
S'QString'
p92
(VName_2
p93
tp94
tp95
Rp96
sg14
I1
sg15
I0
sg16
S'Plus'
p97
sg18
g19
sg20
Nsg21
I00
sg22
I120
sg23
I540
sg24
I00
sbaa(lp98
(imanagegrid
cellStruct
p99
(dp100
g4
Nsg5
I00
sg6
Nsg7
Nsg8
I00
sg9
Nsg10
Nsg11
I00
sg12
I00
sg13
Nsg14
Nsg15
Nsg16
g17
sg18
g19
sg20
Nsg21
I00
sg22
I180
sg23
I0
sg24
I00
sba(imanagegrid
cellStruct
p101
(dp102
g4
Nsg5
I00
sg6
Nsg7
Nsg8
I00
sg9
Nsg10
Nsg11
I00
sg12
I00
sg13
Nsg14
Nsg15
Nsg16
g17
sg18
g19
sg20
Nsg21
I00
sg22
I180
sg23
I60
sg24
I00
sba(imanagegrid
cellStruct
p103
(dp104
g4
Nsg5
I00
sg6
Nsg7
Nsg8
I00
sg9
Nsg10
Nsg11
I00
sg12
I00
sg13
Nsg14
Nsg15
Nsg16
g17
sg18
g19
sg20
Nsg21
I00
sg22
I180
sg23
I120
sg24
I00
sba(imanagegrid
cellStruct
p105
(dp106
g4
Nsg5
I00
sg6
Nsg7
Nsg8
I00
sg9
Nsg10
Nsg11
I00
sg12
I00
sg13
Nsg14
Nsg15
Nsg16
g17
sg18
g19
sg20
Nsg21
I00
sg22
I180
sg23
I180
sg24
I00
sba(imanagegrid
cellStruct
p107
(dp108
g4
Nsg5
I00
sg6
Nsg7
Nsg8
I00
sg9
Nsg10
Nsg11
I00
sg12
I00
sg13
Nsg14
Nsg15
Nsg16
g17
sg18
g19
sg20
Nsg21
I00
sg22
I180
sg23
I240
sg24
I00
sba(imanagegrid
cellStruct
p109
(dp110
g4
Nsg5
I00
sg6
Nsg7
g43
(g44
S'QString'
p111
(VName_1
p112
tp113
tp114
Rp115
sg8
I00
sg9
g43
(g44
S'QString'
p116
(VName_2
p117
tp118
tp119
Rp120
sg10
Nsg11
I00
sg12
I00
sg13
Nsg14
I0
sg15
I0
sg16
S'Equals'
p121
sg18
g19
sg20
Nsg21
I00
sg22
I180
sg23
I300
sg24
I00
sba(imanagegrid
cellStruct
p122
(dp123
g4
Nsg5
I00
sg6
Nsg7
Nsg8
I00
sg9
Nsg10
Nsg11
I00
sg12
I00
sg13
Nsg14
Nsg15
Nsg16
g17
sg18
g19
sg20
Nsg21
I00
sg22
I180
sg23
I360
sg24
I00
sba(imanagegrid
cellStruct
p124
(dp125
g4
Nsg5
I00
sg6
Nsg7
Nsg8
I00
sg9
Nsg10
Nsg11
I00
sg12
I00
sg13
Nsg14
Nsg15
Nsg16
g17
sg18
g19
sg20
Nsg21
I00
sg22
I180
sg23
I420
sg24
I00
sba(imanagegrid
cellStruct
p126
(dp127
g4
Nsg5
I00
sg6
Nsg7
Nsg8
I00
sg9
Nsg10
Nsg11
I00
sg12
I00
sg13
Nsg14
Nsg15
Nsg16
g17
sg18
g19
sg20
Nsg21
I00
sg22
I180
sg23
I480
sg24
I00
sba(imanagegrid
cellStruct
p128
(dp129
g4
g43
(g44
S'QString'
p130
(g46
tp131
tp132
Rp133
sg5
I00
sg6
Nsg7
Nsg8
I00
sg9
Nsg10
Nsg11
I00
sg12
I00
sg13
g43
(g44
S'QString'
p134
(VName_3
p135
tp136
tp137
Rp138
sg14
Nsg15
Nsg16
g55
sg18
g19
sg20
g43
(g44
S'QString'
p139
(VInternal
p140
tp141
tp142
Rp143
sg21
I00
sg22
I180
sg23
I540
sg24
I00
sbaa(lp144
(imanagegrid
cellStruct
p145
(dp146
g4
Nsg5
I00
sg6
Nsg7
Nsg8
I00
sg9
Nsg10
Nsg11
I00
sg12
I00
sg13
Nsg14
Nsg15
Nsg16
g17
sg18
g19
sg20
Nsg21
I00
sg22
I240
sg23
I0
sg24
I00
sba(imanagegrid
cellStruct
p147
(dp148
g4
Nsg5
I00
sg6
Nsg7
Nsg8
I00
sg9
Nsg10
Nsg11
I00
sg12
I00
sg13
Nsg14
Nsg15
Nsg16
g17
sg18
g19
sg20
Nsg21
I00
sg22
I240
sg23
I60
sg24
I00
sba(imanagegrid
cellStruct
p149
(dp150
g4
Nsg5
I00
sg6
Nsg7
Nsg8
I00
sg9
Nsg10
Nsg11
I00
sg12
I00
sg13
Nsg14
Nsg15
Nsg16
g17
sg18
g19
sg20
Nsg21
I00
sg22
I240
sg23
I120
sg24
I00
sba(imanagegrid
cellStruct
p151
(dp152
g4
Nsg5
I00
sg6
Nsg7
Nsg8
I00
sg9
Nsg10
Nsg11
I00
sg12
I00
sg13
Nsg14
Nsg15
Nsg16
g17
sg18
g19
sg20
Nsg21
I00
sg22
I240
sg23
I180
sg24
I00
sba(imanagegrid
cellStruct
p153
(dp154
g4
Nsg5
I00
sg6
Nsg7
Nsg8
I00
sg9
Nsg10
Nsg11
I00
sg12
I00
sg13
Nsg14
Nsg15
Nsg16
g17
sg18
g19
sg20
Nsg21
I00
sg22
I240
sg23
I240
sg24
I00
sba(imanagegrid
cellStruct
p155
(dp156
g4
Nsg5
I00
sg6
Nsg7
Nsg8
I00
sg9
Nsg10
Nsg11
I00
sg12
I00
sg13
Nsg14
Nsg15
Nsg16
g17
sg18
g19
sg20
Nsg21
I00
sg22
I240
sg23
I300
sg24
I00
sba(imanagegrid
cellStruct
p157
(dp158
g4
Nsg5
I00
sg6
Nsg7
Nsg8
I00
sg9
Nsg10
Nsg11
I00
sg12
I00
sg13
Nsg14
Nsg15
Nsg16
g17
sg18
g19
sg20
Nsg21
I00
sg22
I240
sg23
I360
sg24
I00
sba(imanagegrid
cellStruct
p159
(dp160
g4
Nsg5
I00
sg6
Nsg7
Nsg8
I00
sg9
Nsg10
Nsg11
I00
sg12
I00
sg13
Nsg14
Nsg15
Nsg16
g17
sg18
g19
sg20
Nsg21
I00
sg22
I240
sg23
I420
sg24
I00
sba(imanagegrid
cellStruct
p161
(dp162
g4
Nsg5
I00
sg6
Nsg7
Nsg8
I00
sg9
Nsg10
Nsg11
I00
sg12
I00
sg13
Nsg14
Nsg15
Nsg16
g17
sg18
g19
sg20
Nsg21
I00
sg22
I240
sg23
I480
sg24
I00
sba(imanagegrid
cellStruct
p163
(dp164
g4
Nsg5
I00
sg6
Nsg7
Nsg8
I00
sg9
Nsg10
Nsg11
I00
sg12
I00
sg13
Nsg14
Nsg15
Nsg16
g17
sg18
g19
sg20
Nsg21
I00
sg22
I240
sg23
I540
sg24
I00
sbaa(lp165
(imanagegrid
cellStruct
p166
(dp167
g4
Nsg5
I00
sg6
Nsg7
Nsg8
I00
sg9
Nsg10
Nsg11
I00
sg12
I00
sg13
Nsg14
Nsg15
Nsg16
g17
sg18
g19
sg20
Nsg21
I00
sg22
I300
sg23
I0
sg24
I00
sba(imanagegrid
cellStruct
p168
(dp169
g4
Nsg5
I00
sg6
Nsg7
Nsg8
I00
sg9
Nsg10
Nsg11
I00
sg12
I00
sg13
Nsg14
Nsg15
Nsg16
g17
sg18
g19
sg20
Nsg21
I00
sg22
I300
sg23
I60
sg24
I00
sba(imanagegrid
cellStruct
p170
(dp171
g4
Nsg5
I00
sg6
Nsg7
Nsg8
I00
sg9
Nsg10
Nsg11
I00
sg12
I00
sg13
Nsg14
Nsg15
Nsg16
g17
sg18
g19
sg20
Nsg21
I00
sg22
I300
sg23
I120
sg24
I00
sba(imanagegrid
cellStruct
p172
(dp173
g4
Nsg5
I00
sg6
Nsg7
Nsg8
I00
sg9
Nsg10
Nsg11
I00
sg12
I00
sg13
Nsg14
Nsg15
Nsg16
g17
sg18
g19
sg20
Nsg21
I00
sg22
I300
sg23
I180
sg24
I00
sba(imanagegrid
cellStruct
p174
(dp175
g4
Nsg5
I00
sg6
Nsg7
Nsg8
I00
sg9
Nsg10
Nsg11
I00
sg12
I00
sg13
Nsg14
Nsg15
Nsg16
g17
sg18
g19
sg20
Nsg21
I00
sg22
I300
sg23
I240
sg24
I00
sba(imanagegrid
cellStruct
p176
(dp177
g4
Nsg5
I00
sg6
Nsg7
Nsg8
I00
sg9
Nsg10
Nsg11
I00
sg12
I00
sg13
Nsg14
Nsg15
Nsg16
g17
sg18
g19
sg20
Nsg21
I00
sg22
I300
sg23
I300
sg24
I00
sba(imanagegrid
cellStruct
p178
(dp179
g4
Nsg5
I00
sg6
Nsg7
Nsg8
I00
sg9
Nsg10
Nsg11
I00
sg12
I00
sg13
Nsg14
Nsg15
Nsg16
g17
sg18
g19
sg20
Nsg21
I00
sg22
I300
sg23
I360
sg24
I00
sba(imanagegrid
cellStruct
p180
(dp181
g4
Nsg5
I00
sg6
Nsg7
Nsg8
I00
sg9
Nsg10
Nsg11
I00
sg12
I00
sg13
Nsg14
Nsg15
Nsg16
g17
sg18
g19
sg20
Nsg21
I00
sg22
I300
sg23
I420
sg24
I00
sba(imanagegrid
cellStruct
p182
(dp183
g4
Nsg5
I00
sg6
Nsg7
Nsg8
I00
sg9
Nsg10
Nsg11
I00
sg12
I00
sg13
Nsg14
Nsg15
Nsg16
g17
sg18
g19
sg20
Nsg21
I00
sg22
I300
sg23
I480
sg24
I00
sba(imanagegrid
cellStruct
p184
(dp185
g4
Nsg5
I00
sg6
Nsg7
Nsg8
I00
sg9
Nsg10
Nsg11
I00
sg12
I00
sg13
Nsg14
Nsg15
Nsg16
g17
sg18
g19
sg20
Nsg21
I00
sg22
I300
sg23
I540
sg24
I00
sbaa(lp186
(imanagegrid
cellStruct
p187
(dp188
g4
Nsg5
I00
sg6
Nsg7
Nsg8
I00
sg9
Nsg10
Nsg11
I00
sg12
I00
sg13
Nsg14
Nsg15
Nsg16
g17
sg18
g19
sg20
Nsg21
I00
sg22
I360
sg23
I0
sg24
I00
sba(imanagegrid
cellStruct
p189
(dp190
g4
Nsg5
I00
sg6
Nsg7
Nsg8
I00
sg9
Nsg10
Nsg11
I00
sg12
I00
sg13
Nsg14
Nsg15
Nsg16
g17
sg18
g19
sg20
Nsg21
I00
sg22
I360
sg23
I60
sg24
I00
sba(imanagegrid
cellStruct
p191
(dp192
g4
Nsg5
I00
sg6
Nsg7
Nsg8
I00
sg9
Nsg10
Nsg11
I00
sg12
I00
sg13
Nsg14
Nsg15
Nsg16
g17
sg18
g19
sg20
Nsg21
I00
sg22
I360
sg23
I120
sg24
I00
sba(imanagegrid
cellStruct
p193
(dp194
g4
Nsg5
I00
sg6
Nsg7
Nsg8
I00
sg9
Nsg10
Nsg11
I00
sg12
I00
sg13
Nsg14
Nsg15
Nsg16
g17
sg18
g19
sg20
Nsg21
I00
sg22
I360
sg23
I180
sg24
I00
sba(imanagegrid
cellStruct
p195
(dp196
g4
Nsg5
I00
sg6
Nsg7
Nsg8
I00
sg9
Nsg10
Nsg11
I00
sg12
I00
sg13
Nsg14
Nsg15
Nsg16
g17
sg18
g19
sg20
Nsg21
I00
sg22
I360
sg23
I240
sg24
I00
sba(imanagegrid
cellStruct
p197
(dp198
g4
Nsg5
I00
sg6
Nsg7
Nsg8
I00
sg9
Nsg10
Nsg11
I00
sg12
I00
sg13
Nsg14
Nsg15
Nsg16
g17
sg18
g19
sg20
Nsg21
I00
sg22
I360
sg23
I300
sg24
I00
sba(imanagegrid
cellStruct
p199
(dp200
g4
Nsg5
I00
sg6
Nsg7
Nsg8
I00
sg9
Nsg10
Nsg11
I00
sg12
I00
sg13
Nsg14
Nsg15
Nsg16
g17
sg18
g19
sg20
Nsg21
I00
sg22
I360
sg23
I360
sg24
I00
sba(imanagegrid
cellStruct
p201
(dp202
g4
Nsg5
I00
sg6
Nsg7
Nsg8
I00
sg9
Nsg10
Nsg11
I00
sg12
I00
sg13
Nsg14
Nsg15
Nsg16
g17
sg18
g19
sg20
Nsg21
I00
sg22
I360
sg23
I420
sg24
I00
sba(imanagegrid
cellStruct
p203
(dp204
g4
Nsg5
I00
sg6
Nsg7
Nsg8
I00
sg9
Nsg10
Nsg11
I00
sg12
I00
sg13
Nsg14
Nsg15
Nsg16
g17
sg18
g19
sg20
Nsg21
I00
sg22
I360
sg23
I480
sg24
I00
sba(imanagegrid
cellStruct
p205
(dp206
g4
Nsg5
I00
sg6
Nsg7
Nsg8
I00
sg9
Nsg10
Nsg11
I00
sg12
I00
sg13
Nsg14
Nsg15
Nsg16
g17
sg18
g19
sg20
Nsg21
I00
sg22
I360
sg23
I540
sg24
I00
sbaa.